target datalayout = "e-m:e-p270:32:32-p271:32:32-p272:64:64-i64:64-i128:128-f80:128-n8:16:32:64-S128"
target triple = "x86_64-pc-linux-gnu"

%struct.pmix_object_t = type { %union.pthread_mutex_t, ptr, i32, %struct.pmix_tma }
%union.pthread_mutex_t = type { %struct.__pthread_mutex_s }
%struct.__pthread_mutex_s = type { i32, i32, i32, i32, i32, i16, i16, %struct.__pthread_internal_list }
%struct.__pthread_internal_list = type { ptr, ptr }
%struct.pmix_tma = type { ptr, ptr, ptr, ptr, ptr, ptr, ptr, ptr }
%struct.pmix_proc = type { [256 x i8], i32 }
%struct.timeval = type { i64, i64 }
%struct.event = type { %struct.event_callback, %union.anon.0, i32, ptr, %union.anon.2, i16, i16, %struct.timeval }
%struct.event_callback = type { %struct.anon, i16, i8, i8, %union.anon, ptr }
%struct.anon = type { ptr, ptr }
%union.anon = type { ptr }
%union.anon.0 = type { %struct.anon.1 }
%struct.anon.1 = type { ptr, ptr }
%union.anon.2 = type { %struct.anon.3 }
%struct.anon.3 = type { %struct.anon.4, %struct.timeval }
%struct.anon.4 = type { ptr, ptr }
%struct.prte_pmix_server_op_caddy_t = type { %struct.pmix_object_t, %struct.event, i32, ptr, i64, %struct.pmix_proc, ptr, ptr, %struct.pmix_proc, ptr, i64, ptr, i64, ptr, i64, ptr, i64, ptr, i64, ptr, i64, ptr, ptr, ptr, ptr, ptr }

; Function Attrs: nounwind uwtable
define internal void @opcon(ptr noundef %0) #0 {
  %2 = alloca ptr, align 8
  store ptr %0, ptr %2, align 8, !tbaa !36
  %3 = load ptr, ptr %2, align 8, !tbaa !36
  %4 = getelementptr inbounds nuw %struct.prte_pmix_server_op_caddy_t, ptr %3, i32 0, i32 8
  call void @llvm.memset.p0.i64(ptr align 8 %4, i8 0, i64 260, i1 false)
  %5 = load ptr, ptr %2, align 8, !tbaa !36
  %6 = getelementptr inbounds nuw %struct.prte_pmix_server_op_caddy_t, ptr %5, i32 0, i32 9
  store ptr null, ptr %6, align 8, !tbaa !183
  %7 = load ptr, ptr %2, align 8, !tbaa !36
  %8 = getelementptr inbounds nuw %struct.prte_pmix_server_op_caddy_t, ptr %7, i32 0, i32 10
  store i64 0, ptr %8, align 8, !tbaa !184
  %9 = load ptr, ptr %2, align 8, !tbaa !36
  %10 = getelementptr inbounds nuw %struct.prte_pmix_server_op_caddy_t, ptr %9, i32 0, i32 11
  store ptr null, ptr %10, align 8, !tbaa !185
  %11 = load ptr, ptr %2, align 8, !tbaa !36
  %12 = getelementptr inbounds nuw %struct.prte_pmix_server_op_caddy_t, ptr %11, i32 0, i32 12
  store i64 0, ptr %12, align 8, !tbaa !186
  %13 = load ptr, ptr %2, align 8, !tbaa !36
  %14 = getelementptr inbounds nuw %struct.prte_pmix_server_op_caddy_t, ptr %13, i32 0, i32 13
  store ptr null, ptr %14, align 8, !tbaa !166
  %15 = load ptr, ptr %2, align 8, !tbaa !36
  %16 = getelementptr inbounds nuw %struct.prte_pmix_server_op_caddy_t, ptr %15, i32 0, i32 14
  store i64 0, ptr %16, align 8, !tbaa !167
  %17 = load ptr, ptr %2, align 8, !tbaa !36
  %18 = getelementptr inbounds nuw %struct.prte_pmix_server_op_caddy_t, ptr %17, i32 0, i32 15
  store ptr null, ptr %18, align 8, !tbaa !164
  %19 = load ptr, ptr %2, align 8, !tbaa !36
  %20 = getelementptr inbounds nuw %struct.prte_pmix_server_op_caddy_t, ptr %19, i32 0, i32 16
  store i64 0, ptr %20, align 8, !tbaa !159
  %21 = load ptr, ptr %2, align 8, !tbaa !36
  %22 = getelementptr inbounds nuw %struct.prte_pmix_server_op_caddy_t, ptr %21, i32 0, i32 17
  store ptr null, ptr %22, align 8, !tbaa !187
  %23 = load ptr, ptr %2, align 8, !tbaa !36
  %24 = getelementptr inbounds nuw %struct.prte_pmix_server_op_caddy_t, ptr %23, i32 0, i32 18
  store i64 0, ptr %24, align 8, !tbaa !188
  %25 = load ptr, ptr %2, align 8, !tbaa !36
  %26 = getelementptr inbounds nuw %struct.prte_pmix_server_op_caddy_t, ptr %25, i32 0, i32 21
  store ptr null, ptr %26, align 8, !tbaa !189
  %27 = load ptr, ptr %2, align 8, !tbaa !36
  %28 = getelementptr inbounds nuw %struct.prte_pmix_server_op_caddy_t, ptr %27, i32 0, i32 22
  store ptr null, ptr %28, align 8, !tbaa !190
  %29 = load ptr, ptr %2, align 8, !tbaa !36
  %30 = getelementptr inbounds nuw %struct.prte_pmix_server_op_caddy_t, ptr %29, i32 0, i32 23
  store ptr null, ptr %30, align 8, !tbaa !191
  %31 = load ptr, ptr %2, align 8, !tbaa !36
  %32 = getelementptr inbounds nuw %struct.prte_pmix_server_op_caddy_t, ptr %31, i32 0, i32 24
  store ptr null, ptr %32, align 8, !tbaa !192
  %33 = load ptr, ptr %2, align 8, !tbaa !36
  %34 = getelementptr inbounds nuw %struct.prte_pmix_server_op_caddy_t, ptr %33, i32 0, i32 25
  store ptr null, ptr %34, align 8, !tbaa !193
  %35 = load ptr, ptr %2, align 8, !tbaa !36
  %36 = getelementptr inbounds nuw %struct.prte_pmix_server_op_caddy_t, ptr %35, i32 0, i32 7
  store ptr null, ptr %36, align 8, !tbaa !194
  ret void
}