; Function Attrs: mustprogress nofree norecurse nosync nounwind willreturn memory(argmem: write) uwtable
define internal void @opcon(ptr noundef writeonly captures(none) initializes((544, 812), (816, 896), (912, 952)) %0) #9 {
  %2 = getelementptr inbounds nuw i8, ptr %0, i64 816
  %3 = getelementptr inbounds nuw i8, ptr %0, i64 912
  %4 = getelementptr inbounds nuw i8, ptr %0, i64 544
  tail call void @llvm.memset.p0.i64(ptr noundef nonnull align 8 dereferenceable(268) %4, i8 0, i64 268, i1 false)
  tail call void @llvm.memset.p0.i64(ptr noundef nonnull align 8 dereferenceable(80) %2, i8 0, i64 80, i1 false)
  tail call void @llvm.memset.p0.i64(ptr noundef nonnull align 8 dereferenceable(40) %3, i8 0, i64 40, i1 false)
  ret void
}